#include <math.h>
#include <stdio.h>
#include <stdlib.h>
#include <string.h>

int main()
{
	int n,i,m,flag;
	scanf("%d",&n);
	int a[200000];
	for (i=1;i<=n;i++)
	{
		scanf("%d",&a[i]);
	}
	if(n==1)
		printf("%d",a[1]);
	else
	{
	printf("%d",a[1]);
	for (i=2;i<=n;i++)
	{
		for (m=1;m<i;m++)
		{
			if (a[i]==a[m])
			{
				flag=1;
				break;
			}
			else
				flag=-1;
		}
		if(flag==-1)
			printf(" %d",a[i]);
	}

	}
	return 0;
}